ccopy_reg
_reconstructor
p0
(c__main__
Node
p1
c__builtin__
object
p2
Ntp3
Rp4
(dp5
S'records'
p6
(lp7
g0
(c__main__
Record
p8
g2
Ntp9
Rp10
(dp11
S'age'
p12
I20
sS'value'
p13
I10
sS'label'
p14
S'm'
p15
sbasS'pointers'
p16
(lp17
I0
asb.