ccopy_reg
_reconstructor
p0
(c__main__
Node
p1
c__builtin__
object
p2
Ntp3
Rp4
(dp5
S'count'
p6
I2
sS'records'
p7
(lp8
g0
(c__main__
Record
p9
g2
Ntp10
Rp11
(dp12
S'age'
p13
I10
sS'value'
p14
I10
sS'label'
p15
S'10'
p16
sbag0
(g9
g2
Ntp17
Rp18
(dp19
g13
I20
sg14
I20
sg15
S'20'
p20
sbasS'pointers'
p21
(lp22
I0
aI0
asS'parent'
p23
Nsb.