ccopy_reg
_reconstructor
p0
(c__main__
Node
p1
c__builtin__
object
p2
Ntp3
Rp4
(dp5
S'count'
p6
I1
sS'records'
p7
g0
(c__main__
Record
p8
g2
Ntp9
Rp10
(dp11
S'age'
p12
I20
sS'value'
p13
I20
sS'label'
p14
S'20'
p15
sbsS'pointers'
p16
(lp17
I2
aI3
asS'parent'
p18
Nsb.
sg15
S'14'
p20
sbag0
(g9
g2
Ntp21
Rp22
(dp23
g13
I10
sg14
I10
sg15
S'10'
p24
sbag0
(g9
g2
Ntp25
Rp26
(dp27
g13
I20
sg14
I20
sg15
S'20'
p28
sbasS'pointers'
p29
(lp30
I0
aI0
aI0
aI0
asS'parent'
p31
Nsb.