ccopy_reg
_reconstructor
p0
(c__main__
Node
p1
c__builtin__
object
p2
Ntp3
Rp4
(dp5
S'count'
p6
I1
sS'records'
p7
(lp8
g0
(c__main__
Record
p9
g2
Ntp10
Rp11
(dp12
S'age'
p13
I20
sS'value'
p14
I10
sS'label'
p15
S'm'
p16
sbasS'pointers'
p17
(lp18
I0
asb.